target datalayout = "e-m:e-p270:32:32-p271:32:32-p272:64:64-i64:64-i128:128-f80:128-n8:16:32:64-S128"
target triple = "x86_64-pc-linux-gnu"

%struct.evthread_lock_callbacks = type { i32, i32, ptr, ptr, ptr, ptr }
%struct.evbuffer = type { ptr, ptr, ptr, i64, i64, i64, i64, ptr, i8, i32, ptr, i32, %struct.event_callback, %struct.evbuffer_cb_queue, ptr }
%struct.event_callback = type { %struct.anon, i16, i8, i8, %union.anon, ptr }
%struct.anon = type { ptr, ptr }
%union.anon = type { ptr }
%struct.evbuffer_cb_queue = type { ptr }
%struct.evbuffer_cb_entry = type { %struct.anon.1, %union.anon.2, ptr, i32 }
%struct.anon.1 = type { ptr, ptr }
%union.anon.2 = type { ptr }

@evthread_lock_fns_ = external global %struct.evthread_lock_callbacks, align 8

; Function Attrs: nounwind uwtable
define ptr @evbuffer_add_cb(ptr noundef %0, ptr noundef %1, ptr noundef %2) #0 {
  %4 = alloca ptr, align 8
  %5 = alloca ptr, align 8
  %6 = alloca ptr, align 8
  %7 = alloca ptr, align 8
  %8 = alloca ptr, align 8
  %9 = alloca i32, align 4
  store ptr %0, ptr %5, align 8
  store ptr %1, ptr %6, align 8
  store ptr %2, ptr %7, align 8
  call void @llvm.lifetime.start.p0(i64 8, ptr %8) #10
  %10 = call ptr @event_mm_calloc_(i64 noundef 1, i64 noundef 40)
  store ptr %10, ptr %8, align 8
  %11 = icmp ne ptr %10, null
  br i1 %11, label %13, label %12

12:                                               ; preds = %3
  store ptr null, ptr %4, align 8
  store i32 1, ptr %9, align 4
  br label %89

13:                                               ; preds = %3
  br label %14

14:                                               ; preds = %13
  br label %15

15:                                               ; preds = %14
  %16 = load ptr, ptr %5, align 8
  %17 = getelementptr inbounds nuw %struct.evbuffer, ptr %16, i32 0, i32 7
  %18 = load ptr, ptr %17, align 8
  %19 = icmp ne ptr %18, null
  br i1 %19, label %20, label %26

20:                                               ; preds = %15
  %21 = load ptr, ptr getelementptr inbounds nuw (%struct.evthread_lock_callbacks, ptr @evthread_lock_fns_, i32 0, i32 4), align 8
  %22 = load ptr, ptr %5, align 8
  %23 = getelementptr inbounds nuw %struct.evbuffer, ptr %22, i32 0, i32 7
  %24 = load ptr, ptr %23, align 8
  %25 = call i32 %21(i32 noundef 0, ptr noundef %24)
  br label %26

26:                                               ; preds = %20, %15
  br label %27

27:                                               ; preds = %26
  br label %28

28:                                               ; preds = %27
  br label %29

29:                                               ; preds = %28
  br label %30

30:                                               ; preds = %29
  %31 = load ptr, ptr %6, align 8
  %32 = load ptr, ptr %8, align 8
  %33 = getelementptr inbounds nuw %struct.evbuffer_cb_entry, ptr %32, i32 0, i32 1
  store ptr %31, ptr %33, align 8
  %34 = load ptr, ptr %7, align 8
  %35 = load ptr, ptr %8, align 8
  %36 = getelementptr inbounds nuw %struct.evbuffer_cb_entry, ptr %35, i32 0, i32 2
  store ptr %34, ptr %36, align 8
  %37 = load ptr, ptr %8, align 8
  %38 = getelementptr inbounds nuw %struct.evbuffer_cb_entry, ptr %37, i32 0, i32 3
  store i32 1, ptr %38, align 8
  br label %39

39:                                               ; preds = %30
  %40 = load ptr, ptr %5, align 8
  %41 = getelementptr inbounds nuw %struct.evbuffer, ptr %40, i32 0, i32 13
  %42 = getelementptr inbounds nuw %struct.evbuffer_cb_queue, ptr %41, i32 0, i32 0
  %43 = load ptr, ptr %42, align 8
  %44 = load ptr, ptr %8, align 8
  %45 = getelementptr inbounds nuw %struct.evbuffer_cb_entry, ptr %44, i32 0, i32 0
  %46 = getelementptr inbounds nuw %struct.anon.1, ptr %45, i32 0, i32 0
  store ptr %43, ptr %46, align 8
  %47 = icmp ne ptr %43, null
  br i1 %47, label %48, label %58

48:                                               ; preds = %39
  %49 = load ptr, ptr %8, align 8
  %50 = getelementptr inbounds nuw %struct.evbuffer_cb_entry, ptr %49, i32 0, i32 0
  %51 = getelementptr inbounds nuw %struct.anon.1, ptr %50, i32 0, i32 0
  %52 = load ptr, ptr %5, align 8
  %53 = getelementptr inbounds nuw %struct.evbuffer, ptr %52, i32 0, i32 13
  %54 = getelementptr inbounds nuw %struct.evbuffer_cb_queue, ptr %53, i32 0, i32 0
  %55 = load ptr, ptr %54, align 8
  %56 = getelementptr inbounds nuw %struct.evbuffer_cb_entry, ptr %55, i32 0, i32 0
  %57 = getelementptr inbounds nuw %struct.anon.1, ptr %56, i32 0, i32 1
  store ptr %51, ptr %57, align 8
  br label %58

58:                                               ; preds = %48, %39
  %59 = load ptr, ptr %8, align 8
  %60 = load ptr, ptr %5, align 8
  %61 = getelementptr inbounds nuw %struct.evbuffer, ptr %60, i32 0, i32 13
  %62 = getelementptr inbounds nuw %struct.evbuffer_cb_queue, ptr %61, i32 0, i32 0
  store ptr %59, ptr %62, align 8
  %63 = load ptr, ptr %5, align 8
  %64 = getelementptr inbounds nuw %struct.evbuffer, ptr %63, i32 0, i32 13
  %65 = getelementptr inbounds nuw %struct.evbuffer_cb_queue, ptr %64, i32 0, i32 0
  %66 = load ptr, ptr %8, align 8
  %67 = getelementptr inbounds nuw %struct.evbuffer_cb_entry, ptr %66, i32 0, i32 0
  %68 = getelementptr inbounds nuw %struct.anon.1, ptr %67, i32 0, i32 1
  store ptr %65, ptr %68, align 8
  br label %69

69:                                               ; preds = %58
  br label %70

70:                                               ; preds = %69
  br label %71

71:                                               ; preds = %70
  br label %72

72:                                               ; preds = %71
  %73 = load ptr, ptr %5, align 8
  %74 = getelementptr inbounds nuw %struct.evbuffer, ptr %73, i32 0, i32 7
  %75 = load ptr, ptr %74, align 8
  %76 = icmp ne ptr %75, null
  br i1 %76, label %77, label %83

77:                                               ; preds = %72
  %78 = load ptr, ptr getelementptr inbounds nuw (%struct.evthread_lock_callbacks, ptr @evthread_lock_fns_, i32 0, i32 5), align 8
  %79 = load ptr, ptr %5, align 8
  %80 = getelementptr inbounds nuw %struct.evbuffer, ptr %79, i32 0, i32 7
  %81 = load ptr, ptr %80, align 8
  %82 = call i32 %78(i32 noundef 0, ptr noundef %81)
  br label %83

83:                                               ; preds = %77, %72
  br label %84

84:                                               ; preds = %83
  br label %85

85:                                               ; preds = %84
  br label %86

86:                                               ; preds = %85
  br label %87

87:                                               ; preds = %86
  %88 = load ptr, ptr %8, align 8
  store ptr %88, ptr %4, align 8
  store i32 1, ptr %9, align 4
  br label %89

89:                                               ; preds = %87, %12
  call void @llvm.lifetime.end.p0(i64 8, ptr %8) #10
  %90 = load ptr, ptr %4, align 8
  ret ptr %90
}

; Function Attrs: nounwind uwtable
define internal void @evbuffer_remove_all_callbacks(ptr noundef %0) #0 {
  %2 = alloca ptr, align 8
  %3 = alloca ptr, align 8
  store ptr %0, ptr %2, align 8
  call void @llvm.lifetime.start.p0(i64 8, ptr %3) #10
  br label %4

4:                                                ; preds = %38, %1
  %5 = load ptr, ptr %2, align 8
  %6 = getelementptr inbounds nuw %struct.evbuffer, ptr %5, i32 0, i32 13
  %7 = getelementptr inbounds nuw %struct.evbuffer_cb_queue, ptr %6, i32 0, i32 0
  %8 = load ptr, ptr %7, align 8
  store ptr %8, ptr %3, align 8
  %9 = icmp ne ptr %8, null
  br i1 %9, label %10, label %40

10:                                               ; preds = %4
  br label %11

11:                                               ; preds = %10
  %12 = load ptr, ptr %3, align 8
  %13 = getelementptr inbounds nuw %struct.evbuffer_cb_entry, ptr %12, i32 0, i32 0
  %14 = getelementptr inbounds nuw %struct.anon.1, ptr %13, i32 0, i32 0
  %15 = load ptr, ptr %14, align 8
  %16 = icmp ne ptr %15, null
  br i1 %16, label %17, label %28

17:                                               ; preds = %11
  %18 = load ptr, ptr %3, align 8
  %19 = getelementptr inbounds nuw %struct.evbuffer_cb_entry, ptr %18, i32 0, i32 0
  %20 = getelementptr inbounds nuw %struct.anon.1, ptr %19, i32 0, i32 1
  %21 = load ptr, ptr %20, align 8
  %22 = load ptr, ptr %3, align 8
  %23 = getelementptr inbounds nuw %struct.evbuffer_cb_entry, ptr %22, i32 0, i32 0
  %24 = getelementptr inbounds nuw %struct.anon.1, ptr %23, i32 0, i32 0
  %25 = load ptr, ptr %24, align 8
  %26 = getelementptr inbounds nuw %struct.evbuffer_cb_entry, ptr %25, i32 0, i32 0
  %27 = getelementptr inbounds nuw %struct.anon.1, ptr %26, i32 0, i32 1
  store ptr %21, ptr %27, align 8
  br label %28

28:                                               ; preds = %17, %11
  %29 = load ptr, ptr %3, align 8
  %30 = getelementptr inbounds nuw %struct.evbuffer_cb_entry, ptr %29, i32 0, i32 0
  %31 = getelementptr inbounds nuw %struct.anon.1, ptr %30, i32 0, i32 0
  %32 = load ptr, ptr %31, align 8
  %33 = load ptr, ptr %3, align 8
  %34 = getelementptr inbounds nuw %struct.evbuffer_cb_entry, ptr %33, i32 0, i32 0
  %35 = getelementptr inbounds nuw %struct.anon.1, ptr %34, i32 0, i32 1
  %36 = load ptr, ptr %35, align 8
  store ptr %32, ptr %36, align 8
  br label %37

37:                                               ; preds = %28
  br label %38

38:                                               ; preds = %37
  %39 = load ptr, ptr %3, align 8
  call void @event_mm_free_(ptr noundef %39)
  br label %4, !llvm.loop !6

40:                                               ; preds = %4
  call void @llvm.lifetime.end.p0(i64 8, ptr %3) #10
  ret void
}

; Function Attrs: nounwind uwtable
define i32 @evbuffer_setcb(ptr noundef %0, ptr noundef %1, ptr noundef %2) #0 {
  %4 = alloca i32, align 4
  %5 = alloca ptr, align 8
  %6 = alloca ptr, align 8
  %7 = alloca ptr, align 8
  %8 = alloca ptr, align 8
  %9 = alloca i32, align 4
  store ptr %0, ptr %5, align 8
  store ptr %1, ptr %6, align 8
  store ptr %2, ptr %7, align 8
  br label %10

10:                                               ; preds = %3
  br label %11

11:                                               ; preds = %10
  %12 = load ptr, ptr %5, align 8
  %13 = getelementptr inbounds nuw %struct.evbuffer, ptr %12, i32 0, i32 7
  %14 = load ptr, ptr %13, align 8
  %15 = icmp ne ptr %14, null
  br i1 %15, label %16, label %22

16:                                               ; preds = %11
  %17 = load ptr, ptr getelementptr inbounds nuw (%struct.evthread_lock_callbacks, ptr @evthread_lock_fns_, i32 0, i32 4), align 8
  %18 = load ptr, ptr %5, align 8
  %19 = getelementptr inbounds nuw %struct.evbuffer, ptr %18, i32 0, i32 7
  %20 = load ptr, ptr %19, align 8
  %21 = call i32 %17(i32 noundef 0, ptr noundef %20)
  br label %22

22:                                               ; preds = %16, %11
  br label %23

23:                                               ; preds = %22
  br label %24

24:                                               ; preds = %23
  %25 = load ptr, ptr %5, align 8
  %26 = getelementptr inbounds nuw %struct.evbuffer, ptr %25, i32 0, i32 13
  %27 = getelementptr inbounds nuw %struct.evbuffer_cb_queue, ptr %26, i32 0, i32 0
  %28 = load ptr, ptr %27, align 8
  %29 = icmp eq ptr %28, null
  br i1 %29, label %32, label %30

30:                                               ; preds = %24
  %31 = load ptr, ptr %5, align 8
  call void @evbuffer_remove_all_callbacks(ptr noundef %31)
  br label %32

32:                                               ; preds = %30, %24
  %33 = load ptr, ptr %6, align 8
  %34 = icmp ne ptr %33, null
  br i1 %34, label %35, label %70

35:                                               ; preds = %32
  call void @llvm.lifetime.start.p0(i64 8, ptr %8) #10
  %36 = load ptr, ptr %5, align 8
  %37 = load ptr, ptr %7, align 8
  %38 = call ptr @evbuffer_add_cb(ptr noundef %36, ptr noundef null, ptr noundef %37)
  store ptr %38, ptr %8, align 8
  %39 = load ptr, ptr %8, align 8
  %40 = icmp ne ptr %39, null
  br i1 %40, label %59, label %41

41:                                               ; preds = %35
  br label %42

42:                                               ; preds = %41
  br label %43

43:                                               ; preds = %42
  %44 = load ptr, ptr %5, align 8
  %45 = getelementptr inbounds nuw %struct.evbuffer, ptr %44, i32 0, i32 7
  %46 = load ptr, ptr %45, align 8
  %47 = icmp ne ptr %46, null
  br i1 %47, label %48, label %54

48:                                               ; preds = %43
  %49 = load ptr, ptr getelementptr inbounds nuw (%struct.evthread_lock_callbacks, ptr @evthread_lock_fns_, i32 0, i32 5), align 8
  %50 = load ptr, ptr %5, align 8
  %51 = getelementptr inbounds nuw %struct.evbuffer, ptr %50, i32 0, i32 7
  %52 = load ptr, ptr %51, align 8
  %53 = call i32 %49(i32 noundef 0, ptr noundef %52)
  br label %54

54:                                               ; preds = %48, %43
  br label %55

55:                                               ; preds = %54
  br label %56

56:                                               ; preds = %55
  br label %57

57:                                               ; preds = %56
  br label %58

58:                                               ; preds = %57
  store i32 -1, ptr %4, align 4
  store i32 1, ptr %9, align 4
  br label %67

59:                                               ; preds = %35
  %60 = load ptr, ptr %6, align 8
  %61 = load ptr, ptr %8, align 8
  %62 = getelementptr inbounds nuw %struct.evbuffer_cb_entry, ptr %61, i32 0, i32 1
  store ptr %60, ptr %62, align 8
  %63 = load ptr, ptr %8, align 8
  %64 = getelementptr inbounds nuw %struct.evbuffer_cb_entry, ptr %63, i32 0, i32 3
  %65 = load i32, ptr %64, align 8
  %66 = or i32 %65, 262144
  store i32 %66, ptr %64, align 8
  store i32 0, ptr %9, align 4
  br label %67

67:                                               ; preds = %59, %58
  call void @llvm.lifetime.end.p0(i64 8, ptr %8) #10
  %68 = load i32, ptr %9, align 4
  switch i32 %68, label %88 [
    i32 0, label %69
    i32 1, label %86
  ]

69:                                               ; preds = %67
  br label %70

70:                                               ; preds = %69, %32
  br label %71

71:                                               ; preds = %70
  br label %72

72:                                               ; preds = %71
  %73 = load ptr, ptr %5, align 8
  %74 = getelementptr inbounds nuw %struct.evbuffer, ptr %73, i32 0, i32 7
  %75 = load ptr, ptr %74, align 8
  %76 = icmp ne ptr %75, null
  br i1 %76, label %77, label %83

77:                                               ; preds = %72
  %78 = load ptr, ptr getelementptr inbounds nuw (%struct.evthread_lock_callbacks, ptr @evthread_lock_fns_, i32 0, i32 5), align 8
  %79 = load ptr, ptr %5, align 8
  %80 = getelementptr inbounds nuw %struct.evbuffer, ptr %79, i32 0, i32 7
  %81 = load ptr, ptr %80, align 8
  %82 = call i32 %78(i32 noundef 0, ptr noundef %81)
  br label %83

83:                                               ; preds = %77, %72
  br label %84

84:                                               ; preds = %83
  br label %85

85:                                               ; preds = %84
  store i32 0, ptr %4, align 4
  br label %86

86:                                               ; preds = %85, %67
  %87 = load i32, ptr %4, align 4
  ret i32 %87

88:                                               ; preds = %67
  unreachable
}