; Function Attrs: nounwind uwtable
define range(i32 -1, 1) i32 @evbuffer_setcb(ptr noundef %0, ptr noundef %1, ptr noundef %2) local_unnamed_addr #1 {
  %4 = getelementptr inbounds nuw i8, ptr %0, i64 56
  %5 = load ptr, ptr %4, align 8
  %.not = icmp eq ptr %5, null
  br i1 %.not, label %9, label %6

6:                                                ; preds = %3
  %7 = load ptr, ptr getelementptr inbounds nuw (i8, ptr @evthread_lock_fns_, i64 24), align 8
  %8 = tail call i32 %7(i32 noundef 0, ptr noundef nonnull %5) #16
  br label %9

9:                                                ; preds = %6, %3
  %10 = getelementptr inbounds nuw i8, ptr %0, i64 128
  %11 = load ptr, ptr %10, align 8
  %12 = icmp eq ptr %11, null
  br i1 %12, label %evbuffer_remove_all_callbacks.exit, label %.lr.ph.i

.lr.ph.i:                                         ; preds = %9, %.lr.ph._crit_edge.i
  %13 = phi ptr [ %18, %.lr.ph._crit_edge.i ], [ %11, %9 ]
  %14 = load ptr, ptr %13, align 8
  %.not8.i = icmp eq ptr %14, null
  %.phi.trans.insert.i = getelementptr inbounds nuw i8, ptr %13, i64 8
  %.pre10.i = load ptr, ptr %.phi.trans.insert.i, align 8
  br i1 %.not8.i, label %.lr.ph._crit_edge.i, label %15

15:                                               ; preds = %.lr.ph.i
  %16 = getelementptr inbounds nuw i8, ptr %14, i64 8
  store ptr %.pre10.i, ptr %16, align 8
  %.pre.i = load ptr, ptr %13, align 8
  br label %.lr.ph._crit_edge.i

.lr.ph._crit_edge.i:                              ; preds = %15, %.lr.ph.i
  %17 = phi ptr [ %.pre.i, %15 ], [ null, %.lr.ph.i ]
  store ptr %17, ptr %.pre10.i, align 8
  tail call void @event_mm_free_(ptr noundef nonnull %13) #16
  %18 = load ptr, ptr %10, align 8
  %.not.i = icmp eq ptr %18, null
  br i1 %.not.i, label %evbuffer_remove_all_callbacks.exit, label %.lr.ph.i, !llvm.loop !6

evbuffer_remove_all_callbacks.exit:               ; preds = %.lr.ph._crit_edge.i, %9
  %.not22 = icmp eq ptr %1, null
  br i1 %.not22, label %42, label %19

19:                                               ; preds = %evbuffer_remove_all_callbacks.exit
  %20 = tail call ptr @event_mm_calloc_(i64 noundef 1, i64 noundef 40) #16
  %.not.i26 = icmp eq ptr %20, null
  %21 = load ptr, ptr %4, align 8
  %.not24 = icmp eq ptr %21, null
  br i1 %.not.i26, label %evbuffer_add_cb.exit, label %22

22:                                               ; preds = %19
  br i1 %.not24, label %26, label %23

23:                                               ; preds = %22
  %24 = load ptr, ptr getelementptr inbounds nuw (i8, ptr @evthread_lock_fns_, i64 24), align 8
  %25 = tail call i32 %24(i32 noundef 0, ptr noundef nonnull %21) #16
  br label %26

26:                                               ; preds = %23, %22
  %27 = getelementptr inbounds nuw i8, ptr %20, i64 16
  store ptr null, ptr %27, align 8
  %28 = getelementptr inbounds nuw i8, ptr %20, i64 24
  store ptr %2, ptr %28, align 8
  %29 = getelementptr inbounds nuw i8, ptr %20, i64 32
  store i32 1, ptr %29, align 8
  %30 = load ptr, ptr %10, align 8
  store ptr %30, ptr %20, align 8
  %.not23.i = icmp eq ptr %30, null
  br i1 %.not23.i, label %33, label %31

31:                                               ; preds = %26
  %32 = getelementptr inbounds nuw i8, ptr %30, i64 8
  store ptr %20, ptr %32, align 8
  br label %33

33:                                               ; preds = %31, %26
  store ptr %20, ptr %10, align 8
  %34 = getelementptr inbounds nuw i8, ptr %20, i64 8
  store ptr %10, ptr %34, align 8
  %35 = load ptr, ptr %4, align 8
  %.not24.i = icmp eq ptr %35, null
  br i1 %.not24.i, label %39, label %36

36:                                               ; preds = %33
  %37 = load ptr, ptr getelementptr inbounds nuw (i8, ptr @evthread_lock_fns_, i64 32), align 8
  %38 = tail call i32 %37(i32 noundef 0, ptr noundef nonnull %35) #16
  br label %39

evbuffer_add_cb.exit:                             ; preds = %19
  br i1 %.not24, label %.thread, label %.thread.sink.split

39:                                               ; preds = %36, %33
  store ptr %1, ptr %27, align 8
  %40 = load i32, ptr %29, align 8
  %41 = or i32 %40, 262144
  store i32 %41, ptr %29, align 8
  br label %42

42:                                               ; preds = %39, %evbuffer_remove_all_callbacks.exit
  %43 = load ptr, ptr %4, align 8
  %.not25 = icmp eq ptr %43, null
  br i1 %.not25, label %.thread, label %.thread.sink.split

.thread.sink.split:                               ; preds = %42, %evbuffer_add_cb.exit
  %.sink = phi ptr [ %21, %evbuffer_add_cb.exit ], [ %43, %42 ]
  %.1.ph = phi i32 [ -1, %evbuffer_add_cb.exit ], [ 0, %42 ]
  %44 = load ptr, ptr getelementptr inbounds nuw (i8, ptr @evthread_lock_fns_, i64 32), align 8
  %45 = tail call i32 %44(i32 noundef 0, ptr noundef nonnull %.sink) #16
  br label %.thread

.thread:                                          ; preds = %.thread.sink.split, %evbuffer_add_cb.exit, %42
  %.1 = phi i32 [ 0, %42 ], [ -1, %evbuffer_add_cb.exit ], [ %.1.ph, %.thread.sink.split ]
  ret i32 %.1
}